target datalayout = "e-m:e-p270:32:32-p271:32:32-p272:64:64-i64:64-i128:128-f80:128-n8:16:32:64-S128"
target triple = "x86_64-pc-linux-gnu"

%struct.evthread_lock_callbacks = type { i32, i32, ptr, ptr, ptr, ptr }
%struct.evbuffer_chain = type { ptr, i64, i64, i64, i32, i32, ptr }
%struct.evbuffer = type { ptr, ptr, ptr, i64, i64, i64, i64, ptr, i8, i32, ptr, i32, %struct.event_callback, %struct.evbuffer_cb_queue, ptr }
%struct.event_callback = type { %struct.anon, i16, i8, i8, %union.anon, ptr }
%struct.anon = type { ptr, ptr }
%union.anon = type { ptr }
%struct.evbuffer_cb_queue = type { ptr }

@evthread_lock_fns_ = external global %struct.evthread_lock_callbacks, align 8
@evthread_lock_debugging_enabled_ = external global i32, align 4

; Function Attrs: inlinehint nounwind uwtable
define internal void @ZERO_CHAIN(ptr noundef %0) #1 {
  %2 = alloca ptr, align 8
  store ptr %0, ptr %2, align 8
  br label %3

3:                                                ; preds = %1
  %4 = load ptr, ptr %2, align 8
  %5 = getelementptr inbounds nuw %struct.evbuffer, ptr %4, i32 0, i32 7
  %6 = load ptr, ptr %5, align 8
  %7 = icmp ne ptr %6, null
  br i1 %7, label %8, label %14

8:                                                ; preds = %3
  %9 = load i32, ptr @evthread_lock_debugging_enabled_, align 4
  %10 = icmp ne i32 %9, 0
  br i1 %10, label %11, label %14

11:                                               ; preds = %8
  br label %12

12:                                               ; preds = %11
  br label %13

13:                                               ; preds = %12
  br label %14

14:                                               ; preds = %13, %8, %3
  br label %15

15:                                               ; preds = %14
  %16 = load ptr, ptr %2, align 8
  %17 = getelementptr inbounds nuw %struct.evbuffer, ptr %16, i32 0, i32 0
  store ptr null, ptr %17, align 8
  %18 = load ptr, ptr %2, align 8
  %19 = getelementptr inbounds nuw %struct.evbuffer, ptr %18, i32 0, i32 1
  store ptr null, ptr %19, align 8
  %20 = load ptr, ptr %2, align 8
  %21 = getelementptr inbounds nuw %struct.evbuffer, ptr %20, i32 0, i32 0
  %22 = load ptr, ptr %2, align 8
  %23 = getelementptr inbounds nuw %struct.evbuffer, ptr %22, i32 0, i32 2
  store ptr %21, ptr %23, align 8
  %24 = load ptr, ptr %2, align 8
  %25 = getelementptr inbounds nuw %struct.evbuffer, ptr %24, i32 0, i32 3
  store i64 0, ptr %25, align 8
  ret void
}

; Function Attrs: inlinehint nounwind uwtable
define internal i32 @HAS_PINNED_R(ptr noundef %0) #1 {
  %2 = alloca ptr, align 8
  store ptr %0, ptr %2, align 8
  %3 = load ptr, ptr %2, align 8
  %4 = getelementptr inbounds nuw %struct.evbuffer, ptr %3, i32 0, i32 1
  %5 = load ptr, ptr %4, align 8
  %6 = icmp ne ptr %5, null
  br i1 %6, label %7, label %15

7:                                                ; preds = %1
  %8 = load ptr, ptr %2, align 8
  %9 = getelementptr inbounds nuw %struct.evbuffer, ptr %8, i32 0, i32 1
  %10 = load ptr, ptr %9, align 8
  %11 = getelementptr inbounds nuw %struct.evbuffer_chain, ptr %10, i32 0, i32 4
  %12 = load i32, ptr %11, align 8
  %13 = and i32 %12, 16
  %14 = icmp ne i32 %13, 0
  br label %15

15:                                               ; preds = %7, %1
  %16 = phi i1 [ false, %1 ], [ %14, %7 ]
  %17 = zext i1 %16 to i32
  ret i32 %17
}

; Function Attrs: nounwind uwtable
define i32 @evbuffer_drain(ptr noundef %0, i64 noundef %1) #0 {
  %3 = alloca ptr, align 8
  %4 = alloca i64, align 8
  %5 = alloca ptr, align 8
  %6 = alloca ptr, align 8
  %7 = alloca i64, align 8
  %8 = alloca i64, align 8
  %9 = alloca i32, align 4
  store ptr %0, ptr %3, align 8
  store i64 %1, ptr %4, align 8
  call void @llvm.lifetime.start.p0(i64 8, ptr %5) #10
  call void @llvm.lifetime.start.p0(i64 8, ptr %6) #10
  call void @llvm.lifetime.start.p0(i64 8, ptr %7) #10
  call void @llvm.lifetime.start.p0(i64 8, ptr %8) #10
  call void @llvm.lifetime.start.p0(i64 4, ptr %9) #10
  store i32 0, ptr %9, align 4
  br label %10

10:                                               ; preds = %2
  br label %11

11:                                               ; preds = %10
  %12 = load ptr, ptr %3, align 8
  %13 = getelementptr inbounds nuw %struct.evbuffer, ptr %12, i32 0, i32 7
  %14 = load ptr, ptr %13, align 8
  %15 = icmp ne ptr %14, null
  br i1 %15, label %16, label %22

16:                                               ; preds = %11
  %17 = load ptr, ptr getelementptr inbounds nuw (%struct.evthread_lock_callbacks, ptr @evthread_lock_fns_, i32 0, i32 4), align 8
  %18 = load ptr, ptr %3, align 8
  %19 = getelementptr inbounds nuw %struct.evbuffer, ptr %18, i32 0, i32 7
  %20 = load ptr, ptr %19, align 8
  %21 = call i32 %17(i32 noundef 0, ptr noundef %20)
  br label %22

22:                                               ; preds = %16, %11
  br label %23

23:                                               ; preds = %22
  br label %24

24:                                               ; preds = %23
  br label %25

25:                                               ; preds = %24
  br label %26

26:                                               ; preds = %25
  %27 = load ptr, ptr %3, align 8
  %28 = getelementptr inbounds nuw %struct.evbuffer, ptr %27, i32 0, i32 3
  %29 = load i64, ptr %28, align 8
  store i64 %29, ptr %8, align 8
  %30 = load i64, ptr %8, align 8
  %31 = icmp eq i64 %30, 0
  br i1 %31, label %32, label %33

32:                                               ; preds = %26
  br label %169

33:                                               ; preds = %26
  %34 = load ptr, ptr %3, align 8
  %35 = getelementptr inbounds nuw %struct.evbuffer, ptr %34, i32 0, i32 8
  %36 = load i8, ptr %35, align 8
  %37 = lshr i8 %36, 1
  %38 = and i8 %37, 1
  %39 = zext i8 %38 to i32
  %40 = icmp ne i32 %39, 0
  br i1 %40, label %41, label %42

41:                                               ; preds = %33
  store i32 -1, ptr %9, align 4
  br label %169

42:                                               ; preds = %33
  %43 = load i64, ptr %4, align 8
  %44 = load i64, ptr %8, align 8
  %45 = icmp uge i64 %43, %44
  br i1 %45, label %46, label %67

46:                                               ; preds = %42
  %47 = load ptr, ptr %3, align 8
  %48 = call i32 @HAS_PINNED_R(ptr noundef %47)
  %49 = icmp ne i32 %48, 0
  br i1 %49, label %67, label %50

50:                                               ; preds = %46
  %51 = load i64, ptr %8, align 8
  store i64 %51, ptr %4, align 8
  %52 = load ptr, ptr %3, align 8
  %53 = getelementptr inbounds nuw %struct.evbuffer, ptr %52, i32 0, i32 0
  %54 = load ptr, ptr %53, align 8
  store ptr %54, ptr %5, align 8
  br label %55

55:                                               ; preds = %63, %50
  %56 = load ptr, ptr %5, align 8
  %57 = icmp ne ptr %56, null
  br i1 %57, label %58, label %65

58:                                               ; preds = %55
  %59 = load ptr, ptr %5, align 8
  %60 = getelementptr inbounds nuw %struct.evbuffer_chain, ptr %59, i32 0, i32 0
  %61 = load ptr, ptr %60, align 8
  store ptr %61, ptr %6, align 8
  %62 = load ptr, ptr %5, align 8
  call void @evbuffer_chain_free(ptr noundef %62)
  br label %63

63:                                               ; preds = %58
  %64 = load ptr, ptr %6, align 8
  store ptr %64, ptr %5, align 8
  br label %55, !llvm.loop !18

65:                                               ; preds = %55
  %66 = load ptr, ptr %3, align 8
  call void @ZERO_CHAIN(ptr noundef %66)
  br label %162

67:                                               ; preds = %46, %42
  %68 = load i64, ptr %4, align 8
  %69 = load i64, ptr %8, align 8
  %70 = icmp uge i64 %68, %69
  br i1 %70, label %71, label %73

71:                                               ; preds = %67
  %72 = load i64, ptr %8, align 8
  store i64 %72, ptr %4, align 8
  br label %73

73:                                               ; preds = %71, %67
  %74 = load i64, ptr %4, align 8
  %75 = load ptr, ptr %3, align 8
  %76 = getelementptr inbounds nuw %struct.evbuffer, ptr %75, i32 0, i32 3
  %77 = load i64, ptr %76, align 8
  %78 = sub i64 %77, %74
  store i64 %78, ptr %76, align 8
  %79 = load i64, ptr %4, align 8
  store i64 %79, ptr %7, align 8
  %80 = load ptr, ptr %3, align 8
  %81 = getelementptr inbounds nuw %struct.evbuffer, ptr %80, i32 0, i32 0
  %82 = load ptr, ptr %81, align 8
  store ptr %82, ptr %5, align 8
  br label %83

83:                                               ; preds = %143, %73
  %84 = load i64, ptr %7, align 8
  %85 = load ptr, ptr %5, align 8
  %86 = getelementptr inbounds nuw %struct.evbuffer_chain, ptr %85, i32 0, i32 3
  %87 = load i64, ptr %86, align 8
  %88 = icmp uge i64 %84, %87
  br i1 %88, label %89, label %145

89:                                               ; preds = %83
  %90 = load ptr, ptr %5, align 8
  %91 = getelementptr inbounds nuw %struct.evbuffer_chain, ptr %90, i32 0, i32 0
  %92 = load ptr, ptr %91, align 8
  store ptr %92, ptr %6, align 8
  %93 = load ptr, ptr %5, align 8
  %94 = getelementptr inbounds nuw %struct.evbuffer_chain, ptr %93, i32 0, i32 3
  %95 = load i64, ptr %94, align 8
  %96 = load i64, ptr %7, align 8
  %97 = sub i64 %96, %95
  store i64 %97, ptr %7, align 8
  %98 = load ptr, ptr %5, align 8
  %99 = load ptr, ptr %3, align 8
  %100 = getelementptr inbounds nuw %struct.evbuffer, ptr %99, i32 0, i32 2
  %101 = load ptr, ptr %100, align 8
  %102 = load ptr, ptr %101, align 8
  %103 = icmp eq ptr %98, %102
  br i1 %103, label %104, label %109

104:                                              ; preds = %89
  %105 = load ptr, ptr %3, align 8
  %106 = getelementptr inbounds nuw %struct.evbuffer, ptr %105, i32 0, i32 0
  %107 = load ptr, ptr %3, align 8
  %108 = getelementptr inbounds nuw %struct.evbuffer, ptr %107, i32 0, i32 2
  store ptr %106, ptr %108, align 8
  br label %109

109:                                              ; preds = %104, %89
  %110 = load ptr, ptr %5, align 8
  %111 = getelementptr inbounds nuw %struct.evbuffer_chain, ptr %110, i32 0, i32 0
  %112 = load ptr, ptr %3, align 8
  %113 = getelementptr inbounds nuw %struct.evbuffer, ptr %112, i32 0, i32 2
  %114 = load ptr, ptr %113, align 8
  %115 = icmp eq ptr %111, %114
  br i1 %115, label %116, label %121

116:                                              ; preds = %109
  %117 = load ptr, ptr %3, align 8
  %118 = getelementptr inbounds nuw %struct.evbuffer, ptr %117, i32 0, i32 0
  %119 = load ptr, ptr %3, align 8
  %120 = getelementptr inbounds nuw %struct.evbuffer, ptr %119, i32 0, i32 2
  store ptr %118, ptr %120, align 8
  br label %121

121:                                              ; preds = %116, %109
  %122 = load ptr, ptr %5, align 8
  %123 = getelementptr inbounds nuw %struct.evbuffer_chain, ptr %122, i32 0, i32 4
  %124 = load i32, ptr %123, align 8
  %125 = and i32 %124, 16
  %126 = icmp ne i32 %125, 0
  br i1 %126, label %127, label %140

127:                                              ; preds = %121
  br label %128

128:                                              ; preds = %127
  br label %129

129:                                              ; preds = %128
  br label %130

130:                                              ; preds = %129
  %131 = load ptr, ptr %5, align 8
  %132 = getelementptr inbounds nuw %struct.evbuffer_chain, ptr %131, i32 0, i32 3
  %133 = load i64, ptr %132, align 8
  %134 = load ptr, ptr %5, align 8
  %135 = getelementptr inbounds nuw %struct.evbuffer_chain, ptr %134, i32 0, i32 2
  %136 = load i64, ptr %135, align 8
  %137 = add i64 %136, %133
  store i64 %137, ptr %135, align 8
  %138 = load ptr, ptr %5, align 8
  %139 = getelementptr inbounds nuw %struct.evbuffer_chain, ptr %138, i32 0, i32 3
  store i64 0, ptr %139, align 8
  br label %145

140:                                              ; preds = %121
  %141 = load ptr, ptr %5, align 8
  call void @evbuffer_chain_free(ptr noundef %141)
  br label %142

142:                                              ; preds = %140
  br label %143

143:                                              ; preds = %142
  %144 = load ptr, ptr %6, align 8
  store ptr %144, ptr %5, align 8
  br label %83, !llvm.loop !19

145:                                              ; preds = %130, %83
  %146 = load ptr, ptr %5, align 8
  %147 = load ptr, ptr %3, align 8
  %148 = getelementptr inbounds nuw %struct.evbuffer, ptr %147, i32 0, i32 0
  store ptr %146, ptr %148, align 8
  br label %149

149:                                              ; preds = %145
  br label %150

150:                                              ; preds = %149
  br label %151

151:                                              ; preds = %150
  %152 = load i64, ptr %7, align 8
  %153 = load ptr, ptr %5, align 8
  %154 = getelementptr inbounds nuw %struct.evbuffer_chain, ptr %153, i32 0, i32 2
  %155 = load i64, ptr %154, align 8
  %156 = add i64 %155, %152
  store i64 %156, ptr %154, align 8
  %157 = load i64, ptr %7, align 8
  %158 = load ptr, ptr %5, align 8
  %159 = getelementptr inbounds nuw %struct.evbuffer_chain, ptr %158, i32 0, i32 3
  %160 = load i64, ptr %159, align 8
  %161 = sub i64 %160, %157
  store i64 %161, ptr %159, align 8
  br label %162

162:                                              ; preds = %151, %65
  %163 = load i64, ptr %4, align 8
  %164 = load ptr, ptr %3, align 8
  %165 = getelementptr inbounds nuw %struct.evbuffer, ptr %164, i32 0, i32 6
  %166 = load i64, ptr %165, align 8
  %167 = add i64 %166, %163
  store i64 %167, ptr %165, align 8
  %168 = load ptr, ptr %3, align 8
  call void @evbuffer_invoke_callbacks_(ptr noundef %168)
  br label %169

169:                                              ; preds = %162, %41, %32
  br label %170

170:                                              ; preds = %169
  br label %171

171:                                              ; preds = %170
  %172 = load ptr, ptr %3, align 8
  %173 = getelementptr inbounds nuw %struct.evbuffer, ptr %172, i32 0, i32 7
  %174 = load ptr, ptr %173, align 8
  %175 = icmp ne ptr %174, null
  br i1 %175, label %176, label %182

176:                                              ; preds = %171
  %177 = load ptr, ptr getelementptr inbounds nuw (%struct.evthread_lock_callbacks, ptr @evthread_lock_fns_, i32 0, i32 5), align 8
  %178 = load ptr, ptr %3, align 8
  %179 = getelementptr inbounds nuw %struct.evbuffer, ptr %178, i32 0, i32 7
  %180 = load ptr, ptr %179, align 8
  %181 = call i32 %177(i32 noundef 0, ptr noundef %180)
  br label %182

182:                                              ; preds = %176, %171
  br label %183

183:                                              ; preds = %182
  br label %184

184:                                              ; preds = %183
  br label %185

185:                                              ; preds = %184
  br label %186

186:                                              ; preds = %185
  %187 = load i32, ptr %9, align 4
  call void @llvm.lifetime.end.p0(i64 4, ptr %9) #10
  call void @llvm.lifetime.end.p0(i64 8, ptr %8) #10
  call void @llvm.lifetime.end.p0(i64 8, ptr %7) #10
  call void @llvm.lifetime.end.p0(i64 8, ptr %6) #10
  call void @llvm.lifetime.end.p0(i64 8, ptr %5) #10
  ret i32 %187
}