; Function Attrs: nounwind uwtable
define range(i32 -1, 1) i32 @evbuffer_drain(ptr noundef %0, i64 noundef %1) local_unnamed_addr #1 {
  %3 = getelementptr inbounds nuw i8, ptr %0, i64 56
  %4 = load ptr, ptr %3, align 8
  %.not = icmp eq ptr %4, null
  br i1 %.not, label %8, label %5

5:                                                ; preds = %2
  %6 = load ptr, ptr getelementptr inbounds nuw (i8, ptr @evthread_lock_fns_, i64 24), align 8
  %7 = tail call i32 %6(i32 noundef 0, ptr noundef nonnull %4) #16
  br label %8

8:                                                ; preds = %5, %2
  %9 = getelementptr inbounds nuw i8, ptr %0, i64 24
  %10 = load i64, ptr %9, align 8
  %11 = icmp eq i64 %10, 0
  br i1 %11, label %65, label %12

12:                                               ; preds = %8
  %13 = getelementptr inbounds nuw i8, ptr %0, i64 64
  %14 = load i8, ptr %13, align 8
  %15 = and i8 %14, 2
  %.not62 = icmp eq i8 %15, 0
  br i1 %.not62, label %16, label %65

16:                                               ; preds = %12
  %.not63 = icmp ult i64 %1, %10
  br i1 %.not63, label %25, label %17

17:                                               ; preds = %16
  %18 = getelementptr i8, ptr %0, i64 8
  %.val = load ptr, ptr %18, align 8
  %.not.i = icmp eq ptr %.val, null
  br i1 %.not.i, label %HAS_PINNED_R.exit.thread, label %HAS_PINNED_R.exit

HAS_PINNED_R.exit:                                ; preds = %17
  %19 = getelementptr inbounds nuw i8, ptr %.val, i64 32
  %20 = load i32, ptr %19, align 8
  %21 = and i32 %20, 16
  %.not64 = icmp eq i32 %21, 0
  br i1 %.not64, label %HAS_PINNED_R.exit.thread, label %25

HAS_PINNED_R.exit.thread:                         ; preds = %17, %HAS_PINNED_R.exit
  %22 = load ptr, ptr %0, align 8
  %.not6575 = icmp eq ptr %22, null
  br i1 %.not6575, label %._crit_edge, label %.lr.ph

.lr.ph:                                           ; preds = %HAS_PINNED_R.exit.thread, %.lr.ph
  %.05576 = phi ptr [ %23, %.lr.ph ], [ %22, %HAS_PINNED_R.exit.thread ]
  %23 = load ptr, ptr %.05576, align 8
  tail call fastcc void @evbuffer_chain_free(ptr noundef nonnull %.05576)
  %.not65 = icmp eq ptr %23, null
  br i1 %.not65, label %._crit_edge, label %.lr.ph, !llvm.loop !20

._crit_edge:                                      ; preds = %.lr.ph, %HAS_PINNED_R.exit.thread
  %24 = getelementptr inbounds nuw i8, ptr %0, i64 16
  tail call void @llvm.memset.p0.i64(ptr noundef nonnull align 8 dereferenceable(16) %0, i8 0, i64 16, i1 false)
  store ptr %0, ptr %24, align 8
  store i64 0, ptr %9, align 8
  br label %61

25:                                               ; preds = %HAS_PINNED_R.exit, %16
  %spec.select = tail call i64 @llvm.umin.i64(i64 %1, i64 %10)
  %26 = sub i64 %10, %spec.select
  store i64 %26, ptr %9, align 8
  %27 = load ptr, ptr %0, align 8
  %28 = getelementptr inbounds nuw i8, ptr %27, i64 24
  %29 = load i64, ptr %28, align 8
  %.not6679 = icmp ult i64 %spec.select, %29
  br i1 %.not6679, label %.loopexit, label %.lr.ph83

.lr.ph83:                                         ; preds = %25
  %30 = getelementptr inbounds nuw i8, ptr %0, i64 16
  br label %31

31:                                               ; preds = %.lr.ph83, %50
  %32 = phi i64 [ %29, %.lr.ph83 ], [ %52, %50 ]
  %.05381 = phi i64 [ %spec.select, %.lr.ph83 ], [ %34, %50 ]
  %.15680 = phi ptr [ %27, %.lr.ph83 ], [ %33, %50 ]
  %33 = load ptr, ptr %.15680, align 8
  %34 = sub nuw i64 %.05381, %32
  %35 = load ptr, ptr %30, align 8
  %36 = load ptr, ptr %35, align 8
  %.not94 = icmp eq ptr %.15680, %36
  %37 = select i1 %.not94, ptr %0, ptr %35
  %.not95 = icmp eq ptr %.15680, %37
  %38 = or i1 %.not94, %.not95
  br i1 %38, label %39, label %40

39:                                               ; preds = %31
  %simplifycfg.merge = select i1 %.not95, ptr %0, ptr %37
  store ptr %simplifycfg.merge, ptr %30, align 8
  br label %40

40:                                               ; preds = %31, %39
  %41 = getelementptr inbounds nuw i8, ptr %.15680, i64 32
  %42 = load i32, ptr %41, align 8
  %43 = and i32 %42, 16
  %.not67 = icmp eq i32 %43, 0
  br i1 %.not67, label %50, label %44

44:                                               ; preds = %40
  %45 = getelementptr inbounds nuw i8, ptr %.15680, i64 24
  %46 = load i64, ptr %45, align 8
  %47 = getelementptr inbounds nuw i8, ptr %.15680, i64 16
  %48 = load i64, ptr %47, align 8
  %49 = add i64 %48, %46
  store i64 %49, ptr %47, align 8
  store i64 0, ptr %45, align 8
  br label %54

50:                                               ; preds = %40
  tail call fastcc void @evbuffer_chain_free(ptr noundef nonnull %.15680)
  %51 = getelementptr inbounds nuw i8, ptr %33, i64 24
  %52 = load i64, ptr %51, align 8
  %.not66 = icmp ult i64 %34, %52
  br i1 %.not66, label %.loopexit, label %31, !llvm.loop !21

.loopexit:                                        ; preds = %50, %25
  %.156.lcssa78 = phi ptr [ %27, %25 ], [ %33, %50 ]
  %.053.lcssa = phi i64 [ %spec.select, %25 ], [ %34, %50 ]
  %53 = getelementptr inbounds nuw i8, ptr %.156.lcssa78, i64 24
  br label %54

54:                                               ; preds = %.loopexit, %44
  %.15673 = phi ptr [ %.15680, %44 ], [ %.156.lcssa78, %.loopexit ]
  %55 = phi ptr [ %45, %44 ], [ %53, %.loopexit ]
  %.154 = phi i64 [ %34, %44 ], [ %.053.lcssa, %.loopexit ]
  store ptr %.15673, ptr %0, align 8
  %56 = getelementptr inbounds nuw i8, ptr %.15673, i64 16
  %57 = load i64, ptr %56, align 8
  %58 = add i64 %57, %.154
  store i64 %58, ptr %56, align 8
  %59 = load i64, ptr %55, align 8
  %60 = sub i64 %59, %.154
  store i64 %60, ptr %55, align 8
  br label %61

61:                                               ; preds = %54, %._crit_edge
  %.052 = phi i64 [ %spec.select, %54 ], [ %10, %._crit_edge ]
  %62 = getelementptr inbounds nuw i8, ptr %0, i64 48
  %63 = load i64, ptr %62, align 8
  %64 = add i64 %63, %.052
  store i64 %64, ptr %62, align 8
  tail call void @evbuffer_invoke_callbacks_(ptr noundef nonnull %0)
  br label %65

65:                                               ; preds = %12, %8, %61
  %.0 = phi i32 [ 0, %8 ], [ 0, %61 ], [ -1, %12 ]
  %66 = load ptr, ptr %3, align 8
  %.not68 = icmp eq ptr %66, null
  br i1 %.not68, label %70, label %67

67:                                               ; preds = %65
  %68 = load ptr, ptr getelementptr inbounds nuw (i8, ptr @evthread_lock_fns_, i64 32), align 8
  %69 = tail call i32 %68(i32 noundef 0, ptr noundef nonnull %66) #16
  br label %70

70:                                               ; preds = %67, %65
  ret i32 %.0
}